target datalayout = "e-m:e-p270:32:32-p271:32:32-p272:64:64-i64:64-i128:128-f80:128-n8:16:32:64-S128"
target triple = "x86_64-pc-linux-gnu"

%class.svector.42 = type { %class.vector.43 }
%class.vector.43 = type { ptr }
%class.ptr_vector.49 = type { %class.vector.50 }
%class.vector.50 = type { ptr }
%"class.datalog::relation_signature" = type { %"class.datalog::tr_infrastructure<datalog::relation_traits>::signature_base" }
%"class.datalog::tr_infrastructure<datalog::relation_traits>::signature_base" = type { %class.ptr_vector.49 }
%"class.datalog::tr_infrastructure<datalog::relation_traits>::base_ancestor" = type <{ ptr, ptr, %"class.datalog::relation_signature", i32, [4 x i8] }>
%"class.datalog::relation_manager::default_relation_filter_interpreted_and_project_fn" = type { %"class.datalog::tr_infrastructure<datalog::relation_traits>::transformer_fn", %class.scoped_ptr.180, %class.scoped_ptr.181, %class.svector.42 }
%"class.datalog::tr_infrastructure<datalog::relation_traits>::transformer_fn" = type { %"class.datalog::tr_infrastructure<datalog::relation_traits>::base_fn" }
%"class.datalog::tr_infrastructure<datalog::relation_traits>::base_fn" = type { ptr }
%class.scoped_ptr.180 = type { ptr }
%class.scoped_ptr.181 = type { ptr }

; Function Attrs: mustprogress uwtable
define linkonce_odr hidden noundef nonnull align 8 dereferenceable(8) ptr @_ZN6vectorIjLb0EjE9push_backERKj(ptr noundef nonnull align 8 dereferenceable(8) %0, ptr noundef nonnull align 4 dereferenceable(4) %1) #5 comdat align 2 {
  %3 = alloca ptr, align 8
  %4 = alloca ptr, align 8
  store ptr %0, ptr %3, align 8, !tbaa !482
  store ptr %1, ptr %4, align 8, !tbaa !286
  %5 = load ptr, ptr %3, align 8
  %6 = getelementptr inbounds nuw %class.vector.43, ptr %5, i32 0, i32 0
  %7 = load ptr, ptr %6, align 8, !tbaa !484
  %8 = icmp eq ptr %7, null
  br i1 %8, label %19, label %9

9:                                                ; preds = %2
  %10 = getelementptr inbounds nuw %class.vector.43, ptr %5, i32 0, i32 0
  %11 = load ptr, ptr %10, align 8, !tbaa !484
  %12 = getelementptr inbounds i32, ptr %11, i64 -1
  %13 = load i32, ptr %12, align 4, !tbaa !279
  %14 = getelementptr inbounds nuw %class.vector.43, ptr %5, i32 0, i32 0
  %15 = load ptr, ptr %14, align 8, !tbaa !484
  %16 = getelementptr inbounds i32, ptr %15, i64 -2
  %17 = load i32, ptr %16, align 4, !tbaa !279
  %18 = icmp eq i32 %13, %17
  br i1 %18, label %19, label %20

19:                                               ; preds = %9, %2
  call void @_ZN6vectorIjLb0EjE13expand_vectorEv(ptr noundef nonnull align 8 dereferenceable(8) %5)
  br label %20

20:                                               ; preds = %19, %9
  %21 = getelementptr inbounds nuw %class.vector.43, ptr %5, i32 0, i32 0
  %22 = load ptr, ptr %21, align 8, !tbaa !484
  %23 = getelementptr inbounds nuw %class.vector.43, ptr %5, i32 0, i32 0
  %24 = load ptr, ptr %23, align 8, !tbaa !484
  %25 = getelementptr inbounds i32, ptr %24, i64 -1
  %26 = load i32, ptr %25, align 4, !tbaa !279
  %27 = zext i32 %26 to i64
  %28 = getelementptr inbounds nuw i32, ptr %22, i64 %27
  %29 = load ptr, ptr %4, align 8, !tbaa !286
  %30 = load i32, ptr %29, align 4, !tbaa !279
  store i32 %30, ptr %28, align 4, !tbaa !279
  %31 = getelementptr inbounds nuw %class.vector.43, ptr %5, i32 0, i32 0
  %32 = load ptr, ptr %31, align 8, !tbaa !484
  %33 = getelementptr inbounds i32, ptr %32, i64 -1
  %34 = load i32, ptr %33, align 4, !tbaa !279
  %35 = add i32 %34, 1
  store i32 %35, ptr %33, align 4, !tbaa !279
  ret ptr %5
}

; Function Attrs: mustprogress uwtable
define linkonce_odr hidden void @_ZN6vectorIjLb0EjEC2EjPKj(ptr noundef nonnull align 8 dereferenceable(8) %0, i32 noundef %1, ptr noundef %2) unnamed_addr #5 comdat align 2 {
  %4 = alloca ptr, align 8
  %5 = alloca i32, align 4
  %6 = alloca ptr, align 8
  %7 = alloca i32, align 4
  store ptr %0, ptr %4, align 8, !tbaa !482
  store i32 %1, ptr %5, align 4, !tbaa !279
  store ptr %2, ptr %6, align 8, !tbaa !286
  %8 = load ptr, ptr %4, align 8
  %9 = getelementptr inbounds nuw %class.vector.43, ptr %8, i32 0, i32 0
  store ptr null, ptr %9, align 8, !tbaa !484
  call void @llvm.lifetime.start.p0(i64 4, ptr %7) #3
  store i32 0, ptr %7, align 4, !tbaa !279
  br label %10

10:                                               ; preds = %21, %3
  %11 = load i32, ptr %7, align 4, !tbaa !279
  %12 = load i32, ptr %5, align 4, !tbaa !279
  %13 = icmp ult i32 %11, %12
  br i1 %13, label %15, label %14

14:                                               ; preds = %10
  call void @llvm.lifetime.end.p0(i64 4, ptr %7) #3
  br label %24

15:                                               ; preds = %10
  %16 = load ptr, ptr %6, align 8, !tbaa !286
  %17 = load i32, ptr %7, align 4, !tbaa !279
  %18 = zext i32 %17 to i64
  %19 = getelementptr inbounds nuw i32, ptr %16, i64 %18
  %20 = call noundef nonnull align 8 dereferenceable(8) ptr @_ZN6vectorIjLb0EjE9push_backERKj(ptr noundef nonnull align 8 dereferenceable(8) %8, ptr noundef nonnull align 4 dereferenceable(4) %19)
  br label %21

21:                                               ; preds = %15
  %22 = load i32, ptr %7, align 4, !tbaa !279
  %23 = add i32 %22, 1
  store i32 %23, ptr %7, align 4, !tbaa !279
  br label %10, !llvm.loop !673

24:                                               ; preds = %14
  ret void
}

; Function Attrs: mustprogress nounwind uwtable
define linkonce_odr hidden void @_ZN7datalog17tr_infrastructureINS_15relation_traitsEE7base_fnC2Ev(ptr noundef nonnull align 8 dereferenceable(8) %0) unnamed_addr #4 comdat align 2 {
  %2 = alloca ptr, align 8
  store ptr %0, ptr %2, align 8, !tbaa !662
  %3 = load ptr, ptr %2, align 8
  store ptr getelementptr inbounds inrange(-16, 16) ({ [4 x ptr] }, ptr @_ZTVN7datalog17tr_infrastructureINS_15relation_traitsEE7base_fnE, i32 0, i32 0, i32 2), ptr %3, align 8, !tbaa !8
  ret void
}

; Function Attrs: mustprogress nounwind uwtable
define linkonce_odr hidden void @_ZN7datalog17tr_infrastructureINS_15relation_traitsEE7base_fnD2Ev(ptr noundef nonnull align 8 dereferenceable(8) %0) unnamed_addr #4 comdat align 2 {
  %2 = alloca ptr, align 8
  store ptr %0, ptr %2, align 8, !tbaa !662
  ret void
}

; Function Attrs: mustprogress uwtable
define linkonce_odr hidden void @_ZN7svectorIjjEC2EjPKj(ptr noundef nonnull align 8 dereferenceable(8) %0, i32 noundef %1, ptr noundef %2) unnamed_addr #5 comdat align 2 {
  %4 = alloca ptr, align 8
  %5 = alloca i32, align 4
  %6 = alloca ptr, align 8
  store ptr %0, ptr %4, align 8, !tbaa !480
  store i32 %1, ptr %5, align 4, !tbaa !279
  store ptr %2, ptr %6, align 8, !tbaa !286
  %7 = load ptr, ptr %4, align 8
  %8 = load i32, ptr %5, align 4, !tbaa !279
  %9 = load ptr, ptr %6, align 8, !tbaa !286
  call void @_ZN6vectorIjLb0EjEC2EjPKj(ptr noundef nonnull align 8 dereferenceable(8) %7, i32 noundef %8, ptr noundef %9)
  ret void
}

; Function Attrs: mustprogress nounwind uwtable
define linkonce_odr hidden void @_ZN10scoped_ptrIN7datalog17tr_infrastructureINS0_15relation_traitsEE14transformer_fnEEC2EPS4_(ptr noundef nonnull align 8 dereferenceable(8) %0, ptr noundef %1) unnamed_addr #4 comdat align 2 {
  %3 = alloca ptr, align 8
  %4 = alloca ptr, align 8
  store ptr %0, ptr %3, align 8, !tbaa !669
  store ptr %1, ptr %4, align 8, !tbaa !455
  %5 = load ptr, ptr %3, align 8
  %6 = getelementptr inbounds nuw %class.scoped_ptr.181, ptr %5, i32 0, i32 0
  %7 = load ptr, ptr %4, align 8, !tbaa !455
  store ptr %7, ptr %6, align 8, !tbaa !671
  ret void
}

; Function Attrs: mustprogress nounwind uwtable
define linkonce_odr hidden void @_ZN10scoped_ptrIN7datalog17tr_infrastructureINS0_15relation_traitsEE10mutator_fnEEC2EPS4_(ptr noundef nonnull align 8 dereferenceable(8) %0, ptr noundef %1) unnamed_addr #4 comdat align 2 {
  %3 = alloca ptr, align 8
  %4 = alloca ptr, align 8
  store ptr %0, ptr %3, align 8, !tbaa !665
  store ptr %1, ptr %4, align 8, !tbaa !457
  %5 = load ptr, ptr %3, align 8
  %6 = getelementptr inbounds nuw %class.scoped_ptr.180, ptr %5, i32 0, i32 0
  %7 = load ptr, ptr %4, align 8, !tbaa !457
  store ptr %7, ptr %6, align 8, !tbaa !667
  ret void
}

; Function Attrs: inlinehint mustprogress nounwind uwtable
define linkonce_odr hidden void @_ZN7datalog17tr_infrastructureINS_15relation_traitsEE14transformer_fnC2Ev(ptr noundef nonnull align 8 dereferenceable(8) %0) unnamed_addr #7 comdat align 2 {
  %2 = alloca ptr, align 8
  store ptr %0, ptr %2, align 8, !tbaa !455
  %3 = load ptr, ptr %2, align 8
  call void @_ZN7datalog17tr_infrastructureINS_15relation_traitsEE7base_fnC2Ev(ptr noundef nonnull align 8 dereferenceable(8) %3) #3
  store ptr getelementptr inbounds inrange(-16, 24) ({ [5 x ptr] }, ptr @_ZTVN7datalog17tr_infrastructureINS_15relation_traitsEE14transformer_fnE, i32 0, i32 0, i32 2), ptr %3, align 8, !tbaa !8
  ret void
}

; Function Attrs: mustprogress uwtable
define linkonce_odr hidden void @_ZN7datalog16relation_manager50default_relation_filter_interpreted_and_project_fnC2EPNS_17tr_infrastructureINS_15relation_traitsEE10mutator_fnEjPKj(ptr noundef nonnull align 8 dereferenceable(32) %0, ptr noundef %1, i32 noundef %2, ptr noundef %3) unnamed_addr #5 comdat align 2 personality ptr @__gxx_personality_v0 {
  %5 = alloca ptr, align 8
  %6 = alloca ptr, align 8
  %7 = alloca i32, align 4
  %8 = alloca ptr, align 8
  %9 = alloca ptr, align 8
  %10 = alloca i32, align 4
  store ptr %0, ptr %5, align 8, !tbaa !459
  store ptr %1, ptr %6, align 8, !tbaa !457
  store i32 %2, ptr %7, align 4, !tbaa !279
  store ptr %3, ptr %8, align 8, !tbaa !286
  %11 = load ptr, ptr %5, align 8
  call void @_ZN7datalog17tr_infrastructureINS_15relation_traitsEE14transformer_fnC2Ev(ptr noundef nonnull align 8 dereferenceable(8) %11) #3
  store ptr getelementptr inbounds inrange(-16, 24) ({ [5 x ptr] }, ptr @_ZTVN7datalog16relation_manager50default_relation_filter_interpreted_and_project_fnE, i32 0, i32 0, i32 2), ptr %11, align 8, !tbaa !8
  %12 = getelementptr inbounds nuw %"class.datalog::relation_manager::default_relation_filter_interpreted_and_project_fn", ptr %11, i32 0, i32 1
  %13 = load ptr, ptr %6, align 8, !tbaa !457
  invoke void @_ZN10scoped_ptrIN7datalog17tr_infrastructureINS0_15relation_traitsEE10mutator_fnEEC2EPS4_(ptr noundef nonnull align 8 dereferenceable(8) %12, ptr noundef %13)
          to label %14 unwind label %21

14:                                               ; preds = %4
  %15 = getelementptr inbounds nuw %"class.datalog::relation_manager::default_relation_filter_interpreted_and_project_fn", ptr %11, i32 0, i32 2
  invoke void @_ZN10scoped_ptrIN7datalog17tr_infrastructureINS0_15relation_traitsEE14transformer_fnEEC2EPS4_(ptr noundef nonnull align 8 dereferenceable(8) %15, ptr noundef null)
          to label %16 unwind label %25

16:                                               ; preds = %14
  %17 = getelementptr inbounds nuw %"class.datalog::relation_manager::default_relation_filter_interpreted_and_project_fn", ptr %11, i32 0, i32 3
  %18 = load i32, ptr %7, align 4, !tbaa !279
  %19 = load ptr, ptr %8, align 8, !tbaa !286
  invoke void @_ZN7svectorIjjEC2EjPKj(ptr noundef nonnull align 8 dereferenceable(8) %17, i32 noundef %18, ptr noundef %19)
          to label %20 unwind label %29

20:                                               ; preds = %16
  ret void

21:                                               ; preds = %4
  %22 = landingpad { ptr, i32 }
          cleanup
  %23 = extractvalue { ptr, i32 } %22, 0
  store ptr %23, ptr %9, align 8
  %24 = extractvalue { ptr, i32 } %22, 1
  store i32 %24, ptr %10, align 4
  br label %34

25:                                               ; preds = %14
  %26 = landingpad { ptr, i32 }
          cleanup
  %27 = extractvalue { ptr, i32 } %26, 0
  store ptr %27, ptr %9, align 8
  %28 = extractvalue { ptr, i32 } %26, 1
  store i32 %28, ptr %10, align 4
  br label %33

29:                                               ; preds = %16
  %30 = landingpad { ptr, i32 }
          cleanup
  %31 = extractvalue { ptr, i32 } %30, 0
  store ptr %31, ptr %9, align 8
  %32 = extractvalue { ptr, i32 } %30, 1
  store i32 %32, ptr %10, align 4
  call void @_ZN10scoped_ptrIN7datalog17tr_infrastructureINS0_15relation_traitsEE14transformer_fnEED2Ev(ptr noundef nonnull align 8 dereferenceable(8) %15) #3
  br label %33

33:                                               ; preds = %29, %25
  call void @_ZN10scoped_ptrIN7datalog17tr_infrastructureINS0_15relation_traitsEE10mutator_fnEED2Ev(ptr noundef nonnull align 8 dereferenceable(8) %12) #3
  br label %34

34:                                               ; preds = %33, %21
  call void @_ZN7datalog17tr_infrastructureINS_15relation_traitsEE7base_fnD2Ev(ptr noundef nonnull align 8 dereferenceable(8) %11) #3
  br label %35

35:                                               ; preds = %34
  %36 = load ptr, ptr %9, align 8
  %37 = load i32, ptr %10, align 4
  %38 = insertvalue { ptr, i32 } poison, ptr %36, 0
  %39 = insertvalue { ptr, i32 } %38, i32 %37, 1
  resume { ptr, i32 } %39
}

; Function Attrs: mustprogress uwtable
define hidden noundef ptr @_ZN7datalog16relation_manager24mk_filter_interpreted_fnERKNS_13relation_baseEP3app(ptr noundef nonnull align 8 dereferenceable(200) %0, ptr noundef nonnull align 8 dereferenceable(28) %1, ptr noundef %2) #5 align 2 {
  %4 = alloca ptr, align 8
  %5 = alloca ptr, align 8
  %6 = alloca ptr, align 8
  store ptr %0, ptr %4, align 8, !tbaa !3
  store ptr %1, ptr %5, align 8, !tbaa !293
  store ptr %2, ptr %6, align 8, !tbaa !391
  %7 = load ptr, ptr %5, align 8, !tbaa !293
  %8 = call noundef nonnull align 8 dereferenceable(36) ptr @_ZNK7datalog17tr_infrastructureINS_15relation_traitsEE13base_ancestor10get_pluginEv(ptr noundef nonnull align 8 dereferenceable(28) %7)
  %9 = load ptr, ptr %5, align 8, !tbaa !293
  %10 = load ptr, ptr %6, align 8, !tbaa !391
  %11 = load ptr, ptr %8, align 8, !tbaa !8
  %12 = getelementptr inbounds ptr, ptr %11, i64 19
  %13 = load ptr, ptr %12, align 8
  %14 = call noundef ptr %13(ptr noundef nonnull align 8 dereferenceable(32) %8, ptr noundef nonnull align 8 dereferenceable(28) %9, ptr noundef %10)
  ret ptr %14
}

; Function Attrs: mustprogress nounwind uwtable
define linkonce_odr hidden noundef nonnull align 8 dereferenceable(36) ptr @_ZNK7datalog17tr_infrastructureINS_15relation_traitsEE13base_ancestor10get_pluginEv(ptr noundef nonnull align 8 dereferenceable(28) %0) #4 comdat align 2 {
  %2 = alloca ptr, align 8
  store ptr %0, ptr %2, align 8, !tbaa !447
  %3 = load ptr, ptr %2, align 8
  %4 = getelementptr inbounds nuw %"class.datalog::tr_infrastructure<datalog::relation_traits>::base_ancestor", ptr %3, i32 0, i32 1
  %5 = load ptr, ptr %4, align 8, !tbaa !449
  ret ptr %5
}

; Function Attrs: mustprogress uwtable
define hidden noundef ptr @_ZN7datalog16relation_manager36mk_filter_interpreted_and_project_fnERKNS_13relation_baseEP3appjPKj(ptr noundef nonnull align 8 dereferenceable(200) %0, ptr noundef nonnull align 8 dereferenceable(28) %1, ptr noundef %2, i32 noundef %3, ptr noundef %4) #5 align 2 {
  %6 = alloca ptr, align 8
  %7 = alloca ptr, align 8
  %8 = alloca ptr, align 8
  %9 = alloca i32, align 4
  %10 = alloca ptr, align 8
  %11 = alloca ptr, align 8
  %12 = alloca ptr, align 8
  store ptr %0, ptr %6, align 8, !tbaa !3
  store ptr %1, ptr %7, align 8, !tbaa !293
  store ptr %2, ptr %8, align 8, !tbaa !391
  store i32 %3, ptr %9, align 4, !tbaa !279
  store ptr %4, ptr %10, align 8, !tbaa !286
  %13 = load ptr, ptr %6, align 8
  call void @llvm.lifetime.start.p0(i64 8, ptr %11) #3
  %14 = load ptr, ptr %7, align 8, !tbaa !293
  %15 = call noundef nonnull align 8 dereferenceable(36) ptr @_ZNK7datalog17tr_infrastructureINS_15relation_traitsEE13base_ancestor10get_pluginEv(ptr noundef nonnull align 8 dereferenceable(28) %14)
  %16 = load ptr, ptr %7, align 8, !tbaa !293
  %17 = load ptr, ptr %8, align 8, !tbaa !391
  %18 = load i32, ptr %9, align 4, !tbaa !279
  %19 = load ptr, ptr %10, align 8, !tbaa !286
  %20 = load ptr, ptr %15, align 8, !tbaa !8
  %21 = getelementptr inbounds ptr, ptr %20, i64 20
  %22 = load ptr, ptr %21, align 8
  %23 = call noundef ptr %22(ptr noundef nonnull align 8 dereferenceable(32) %15, ptr noundef nonnull align 8 dereferenceable(28) %16, ptr noundef %17, i32 noundef %18, ptr noundef %19)
  store ptr %23, ptr %11, align 8, !tbaa !455
  %24 = load ptr, ptr %11, align 8, !tbaa !455
  %25 = icmp ne ptr %24, null
  br i1 %25, label %38, label %26

26:                                               ; preds = %5
  call void @llvm.lifetime.start.p0(i64 8, ptr %12) #3
  %27 = load ptr, ptr %7, align 8, !tbaa !293
  %28 = load ptr, ptr %8, align 8, !tbaa !391
  %29 = call noundef ptr @_ZN7datalog16relation_manager24mk_filter_interpreted_fnERKNS_13relation_baseEP3app(ptr noundef nonnull align 8 dereferenceable(200) %13, ptr noundef nonnull align 8 dereferenceable(28) %27, ptr noundef %28)
  store ptr %29, ptr %12, align 8, !tbaa !457
  %30 = load ptr, ptr %12, align 8, !tbaa !457
  %31 = icmp ne ptr %30, null
  br i1 %31, label %32, label %37

32:                                               ; preds = %26
  %33 = call noalias noundef ptr @_ZN6memory8allocateEm(i64 noundef 32)
  %34 = load ptr, ptr %12, align 8, !tbaa !457
  %35 = load i32, ptr %9, align 4, !tbaa !279
  %36 = load ptr, ptr %10, align 8, !tbaa !286
  call void @_ZN7datalog16relation_manager50default_relation_filter_interpreted_and_project_fnC2EPNS_17tr_infrastructureINS_15relation_traitsEE10mutator_fnEjPKj(ptr noundef nonnull align 8 dereferenceable(32) %33, ptr noundef %34, i32 noundef %35, ptr noundef %36)
  store ptr %33, ptr %11, align 8, !tbaa !455
  br label %37

37:                                               ; preds = %32, %26
  call void @llvm.lifetime.end.p0(i64 8, ptr %12) #3
  br label %38

38:                                               ; preds = %37, %5
  %39 = load ptr, ptr %11, align 8, !tbaa !455
  call void @llvm.lifetime.end.p0(i64 8, ptr %11) #3
  ret ptr %39
}