; Function Attrs: mustprogress uwtable
define hidden noundef ptr @_ZN7datalog16relation_manager36mk_filter_interpreted_and_project_fnERKNS_13relation_baseEP3appjPKj(ptr noundef nonnull readnone align 8 captures(none) dereferenceable(200) %0, ptr noundef nonnull align 8 dereferenceable(28) %1, ptr noundef %2, i32 noundef %3, ptr noundef %4) local_unnamed_addr #4 align 2 personality ptr @__gxx_personality_v0 {
  %6 = getelementptr inbounds nuw i8, ptr %1, i64 8
  %7 = load ptr, ptr %6, align 8, !tbaa !426
  %8 = load ptr, ptr %7, align 8, !tbaa !3
  %9 = getelementptr inbounds nuw i8, ptr %8, i64 160
  %10 = load ptr, ptr %9, align 8
  %11 = tail call noundef ptr %10(ptr noundef nonnull align 8 dereferenceable(32) %7, ptr noundef nonnull align 8 dereferenceable(28) %1, ptr noundef %2, i32 noundef %3, ptr noundef %4)
  %.not = icmp eq ptr %11, null
  br i1 %.not, label %12, label %_ZN7datalog16relation_manager50default_relation_filter_interpreted_and_project_fnC2EPNS_17tr_infrastructureINS_15relation_traitsEE10mutator_fnEjPKj.exit

12:                                               ; preds = %5
  %13 = load ptr, ptr %6, align 8, !tbaa !426
  %14 = load ptr, ptr %13, align 8, !tbaa !3
  %15 = getelementptr inbounds nuw i8, ptr %14, i64 152
  %16 = load ptr, ptr %15, align 8
  %17 = tail call noundef ptr %16(ptr noundef nonnull align 8 dereferenceable(32) %13, ptr noundef nonnull align 8 dereferenceable(28) %1, ptr noundef %2)
  %.not16 = icmp eq ptr %17, null
  br i1 %.not16, label %_ZN7datalog16relation_manager50default_relation_filter_interpreted_and_project_fnC2EPNS_17tr_infrastructureINS_15relation_traitsEE10mutator_fnEjPKj.exit, label %18

18:                                               ; preds = %12
  %19 = tail call noalias noundef ptr @_ZN6memory8allocateEm(i64 noundef 32)
  store ptr getelementptr inbounds nuw inrange(-16, 24) (i8, ptr @_ZTVN7datalog16relation_manager50default_relation_filter_interpreted_and_project_fnE, i64 16), ptr %19, align 8, !tbaa !3
  %20 = getelementptr inbounds nuw i8, ptr %19, i64 8
  store ptr %17, ptr %20, align 8, !tbaa !430
  %21 = getelementptr inbounds nuw i8, ptr %19, i64 16
  %22 = getelementptr inbounds nuw i8, ptr %19, i64 24
  %.not.i.i.i = icmp eq i32 %3, 0
  tail call void @llvm.memset.p0.i64(ptr noundef nonnull align 8 dereferenceable(16) %21, i8 0, i64 16, i1 false)
  br i1 %.not.i.i.i, label %_ZN7datalog16relation_manager50default_relation_filter_interpreted_and_project_fnC2EPNS_17tr_infrastructureINS_15relation_traitsEE10mutator_fnEjPKj.exit, label %.lr.ph.preheader.i.i.i

.lr.ph.preheader.i.i.i:                           ; preds = %18
  %wide.trip.count.i.i.i = zext i32 %3 to i64
  br label %.lr.ph.i.i.i

.lr.ph.i.i.i:                                     ; preds = %_ZN6vectorIjLb0EjE9push_backERKj.exit.i.i.i, %.lr.ph.preheader.i.i.i
  %23 = phi ptr [ null, %.lr.ph.preheader.i.i.i ], [ %33, %_ZN6vectorIjLb0EjE9push_backERKj.exit.i.i.i ]
  %indvars.iv.i.i.i = phi i64 [ 0, %.lr.ph.preheader.i.i.i ], [ %indvars.iv.next.i.i.i, %_ZN6vectorIjLb0EjE9push_backERKj.exit.i.i.i ]
  %24 = getelementptr inbounds nuw i32, ptr %4, i64 %indvars.iv.i.i.i
  %25 = icmp eq ptr %23, null
  br i1 %25, label %32, label %26

26:                                               ; preds = %.lr.ph.i.i.i
  %27 = getelementptr inbounds i8, ptr %23, i64 -4
  %28 = load i32, ptr %27, align 4, !tbaa !34
  %29 = getelementptr inbounds i8, ptr %23, i64 -8
  %30 = load i32, ptr %29, align 4, !tbaa !34
  %31 = icmp eq i32 %28, %30
  br i1 %31, label %32, label %_ZN6vectorIjLb0EjE9push_backERKj.exit.i.i.i

32:                                               ; preds = %26, %.lr.ph.i.i.i
  invoke void @_ZN6vectorIjLb0EjE13expand_vectorEv(ptr noundef nonnull align 8 dereferenceable(8) %22)
          to label %.noexc.i unwind label %40

.noexc.i:                                         ; preds = %32
  %.pre.i.i.i.i = load ptr, ptr %22, align 8, !tbaa !433
  %.phi.trans.insert.i.i.i.i = getelementptr inbounds i8, ptr %.pre.i.i.i.i, i64 -4
  %.pre2.i.i.i.i = load i32, ptr %.phi.trans.insert.i.i.i.i, align 4, !tbaa !34
  br label %_ZN6vectorIjLb0EjE9push_backERKj.exit.i.i.i

_ZN6vectorIjLb0EjE9push_backERKj.exit.i.i.i:      ; preds = %.noexc.i, %26
  %33 = phi ptr [ %.pre.i.i.i.i, %.noexc.i ], [ %23, %26 ]
  %34 = phi i32 [ %.pre2.i.i.i.i, %.noexc.i ], [ %28, %26 ]
  %35 = getelementptr inbounds i8, ptr %33, i64 -4
  %36 = zext i32 %34 to i64
  %37 = getelementptr inbounds nuw i32, ptr %33, i64 %36
  %38 = load i32, ptr %24, align 4, !tbaa !34
  store i32 %38, ptr %37, align 4, !tbaa !34
  %39 = add i32 %34, 1
  store i32 %39, ptr %35, align 4, !tbaa !34
  %indvars.iv.next.i.i.i = add nuw nsw i64 %indvars.iv.i.i.i, 1
  %exitcond.not.i.i.i = icmp eq i64 %indvars.iv.next.i.i.i, %wide.trip.count.i.i.i
  br i1 %exitcond.not.i.i.i, label %_ZN7datalog16relation_manager50default_relation_filter_interpreted_and_project_fnC2EPNS_17tr_infrastructureINS_15relation_traitsEE10mutator_fnEjPKj.exit, label %.lr.ph.i.i.i, !llvm.loop !434

40:                                               ; preds = %32
  %41 = landingpad { ptr, i32 }
          cleanup
  tail call void @_ZN10scoped_ptrIN7datalog17tr_infrastructureINS0_15relation_traitsEE14transformer_fnEED2Ev(ptr noundef nonnull align 8 dereferenceable(8) %21) #27
  tail call void @_ZN10scoped_ptrIN7datalog17tr_infrastructureINS0_15relation_traitsEE10mutator_fnEED2Ev(ptr noundef nonnull align 8 dereferenceable(8) %20) #27
  resume { ptr, i32 } %41

_ZN7datalog16relation_manager50default_relation_filter_interpreted_and_project_fnC2EPNS_17tr_infrastructureINS_15relation_traitsEE10mutator_fnEjPKj.exit: ; preds = %_ZN6vectorIjLb0EjE9push_backERKj.exit.i.i.i, %18, %12, %5
  %.0 = phi ptr [ %11, %5 ], [ null, %12 ], [ %19, %18 ], [ %19, %_ZN6vectorIjLb0EjE9push_backERKj.exit.i.i.i ]
  ret ptr %.0
}